; Function Attrs: nounwind uwtable
define void @Rsb_ManPerformResub6Test() local_unnamed_addr #4 {
Vec_WrdFree.exit:
  %0 = alloca i64, align 8
  %1 = alloca i64, align 8
  call void @llvm.lifetime.start.p0(i64 8, ptr nonnull %0) #18
  call void @llvm.lifetime.start.p0(i64 8, ptr nonnull %1) #18
  %2 = tail call noalias dereferenceable_or_null(16) ptr @malloc(i64 noundef 16) #20
  %3 = getelementptr inbounds nuw i8, ptr %2, i64 4
  store i32 100, ptr %2, align 8, !tbaa !83
  %4 = tail call noalias dereferenceable_or_null(800) ptr @malloc(i64 noundef 800) #20
  %5 = getelementptr inbounds nuw i8, ptr %2, i64 8
  store ptr %4, ptr %5, align 8, !tbaa !47
  store i64 -6148914691236517206, ptr %4, align 8, !tbaa !10
  %6 = getelementptr inbounds nuw i8, ptr %4, i64 8
  store i64 -3689348814741910324, ptr %6, align 8, !tbaa !10
  %7 = getelementptr inbounds nuw i8, ptr %4, i64 16
  store i64 -1085102592571150096, ptr %7, align 8, !tbaa !10
  %8 = getelementptr inbounds nuw i8, ptr %4, i64 24
  store i64 -71777214294589696, ptr %8, align 8, !tbaa !10
  %9 = getelementptr inbounds nuw i8, ptr %4, i64 32
  store i64 -281470681808896, ptr %9, align 8, !tbaa !10
  %10 = getelementptr inbounds nuw i8, ptr %4, i64 40
  store i64 -4294967296, ptr %10, align 8, !tbaa !10
  %11 = getelementptr inbounds nuw i8, ptr %4, i64 48
  store i64 -8608480567731124088, ptr %11, align 8, !tbaa !10
  %12 = getelementptr inbounds nuw i8, ptr %4, i64 56
  store i64 -1152657617789587456, ptr %12, align 8, !tbaa !10
  store i32 9, ptr %3, align 4, !tbaa !81
  %13 = getelementptr inbounds nuw i8, ptr %4, i64 64
  store i64 -281474976710656, ptr %13, align 8, !tbaa !10
  %14 = tail call ptr @Rsb_ManAlloc(i32 noundef 6, i32 noundef 64, i32 noundef 4, i32 noundef 1) #18
  %15 = call i32 @Rsb_ManPerformResub6(ptr noundef %14, i32 noundef 6, i64 noundef -8207807743864, ptr noundef nonnull %2, ptr noundef nonnull %0, ptr noundef nonnull %1, i32 noundef 1)
  tail call void @Rsb_ManFree(ptr noundef %14) #18
  tail call void @free(ptr noundef nonnull %4) #18
  tail call void @free(ptr noundef nonnull %2) #18
  call void @llvm.lifetime.end.p0(i64 8, ptr nonnull %1) #18
  call void @llvm.lifetime.end.p0(i64 8, ptr nonnull %0) #18
  ret void
}